(dp0
S'hi'
p1
(lp2
(dp3
S'logins'
p4
I1
sa(dp5
S'digit0attempted'
p6
I1
sS'digit9attempted'
p7
I0
sS'digit4attempted'
p8
I0
sS'digit3attempted'
p9
I1
sS'digit8attempted'
p10
I1
sS'digit7attempted'
p11
I0
sS'digit2attempted'
p12
I0
sS'digit1attempted'
p13
I0
sS'digit6attempted'
p14
I0
sS'digit5attempted'
p15
I0
sasS'Hi'
p16
(lp17
(lp18
(dp19
S'logins'
p20
I2
saa(dp21
S'digit4attempted'
p22
I3
sS'digit8attempted'
p23
I4
sS'digit7attempted'
p24
I2
sS'digit2attempted'
p25
I1
sS'digit6attempted'
p26
I2
sS'digit5attempted'
p27
I2
sS'digit0attempted'
p28
I4
sS'digit9attempted'
p29
I2
sS'digit3attempted'
p30
I3
sS'digit1attempted'
p31
I2
sasS'Mary'
p32
(lp33
(lp34
(dp35
S'logins'
p36
I2
saa(dp37
S'digit4attempted'
p38
I3
sS'digit8attempted'
p39
I4
sS'digit7attempted'
p40
I6
sS'digit2attempted'
p41
I3
sS'digit6attempted'
p42
I5
sS'digit5attempted'
p43
I3
sS'digit0attempted'
p44
I5
sS'digit9attempted'
p45
I3
sS'digit3attempted'
p46
I5
sS'digit1attempted'
p47
I3
sas.