(dp0
S'hi'
p1
(lp2
(dp3
S'logins'
p4
I1
sa(dp5
S'digit4attempted'
p6
I6
sS'digit8attempted'
p7
I6
sS'digit7attempted'
p8
I4
sS'digit2attempted'
p9
I2
sS'digit6attempted'
p10
I3
sS'digit5attempted'
p11
I6
sS'digit0attempted'
p12
I5
sS'digit9attempted'
p13
I3
sS'digit3attempted'
p14
I6
sS'digit1attempted'
p15
I5
sasS'Mary'
p16
(lp17
(lp18
(dp19
S'logins'
p20
I2
saa(dp21
S'digit4attempted'
p22
I5
sS'digit8attempted'
p23
I4
sS'digit7attempted'
p24
I4
sS'digit2attempted'
p25
I2
sS'digit6attempted'
p26
I4
sS'digit5attempted'
p27
I5
sS'digit0attempted'
p28
I6
sS'digit9attempted'
p29
I4
sS'digit3attempted'
p30
I5
sS'digit1attempted'
p31
I5
sasS'Hi'
p32
(lp33
(lp34
(dp35
S'logins'
p36
I2
saa(dp37
S'digit4attempted'
p38
I3
sS'digit8attempted'
p39
I0
sS'digit7attempted'
p40
I1
sS'digit2attempted'
p41
I3
sS'digit6attempted'
p42
I5
sS'digit5attempted'
p43
I3
sS'digit0attempted'
p44
I3
sS'digit9attempted'
p45
I1
sS'digit3attempted'
p46
I2
sS'digit1attempted'
p47
I2
sas.