(dp0
S'Mary'
p1
(lp2
(dp3
S'logins'
p4
I1
sa(dp5
S'digit0attempted'
p6
I0
sS'digit9attempted'
p7
I0
sS'digit4attempted'
p8
I1
sS'digit3attempted'
p9
I0
sS'digit8attempted'
p10
I0
sS'digit7attempted'
p11
I1
sS'digit2attempted'
p12
I0
sS'digit1attempted'
p13
I1
sS'digit6attempted'
p14
I0
sS'digit5attempted'
p15
I1
sas.