(dp0
S'Mary'
p1
(lp2
(lp3
(dp4
S'logins'
p5
I2
saa(dp6
S'digit4attempted'
p7
I2
sS'digit8attempted'
p8
I0
sS'digit7attempted'
p9
I0
sS'digit2attempted'
p10
I2
sS'digit6attempted'
p11
I1
sS'digit5attempted'
p12
I1
sS'digit0attempted'
p13
I0
sS'digit9attempted'
p14
I1
sS'digit3attempted'
p15
I2
sS'digit1attempted'
p16
I1
sas.